target datalayout = "e-m:e-p270:32:32-p271:32:32-p272:64:64-i64:64-i128:128-f80:128-n8:16:32:64-S128"
target triple = "x86_64-pc-linux-gnu"

%"class.llvm::ilist_node_impl.218" = type { %"class.llvm::ilist_node_base" }
%"class.llvm::ilist_node_base" = type { %"class.llvm::ilist_detail::node_base_prevnext" }
%"class.llvm::ilist_detail::node_base_prevnext" = type { ptr, ptr }
%"class.llvm::ModuleSlotTracker" = type { ptr, %"class.std::unique_ptr", i8, i8, ptr, ptr, ptr, %"class.std::function", %"class.std::function.2" }
%"class.std::unique_ptr" = type { %"struct.std::__uniq_ptr_data" }
%"struct.std::__uniq_ptr_data" = type { %"class.std::__uniq_ptr_impl" }
%"class.std::__uniq_ptr_impl" = type { %"class.std::tuple" }
%"class.std::tuple" = type { %"struct.std::_Tuple_impl" }
%"struct.std::_Tuple_impl" = type { %"struct.std::_Head_base.1" }
%"struct.std::_Head_base.1" = type { ptr }
%"class.std::function" = type { %"class.std::_Function_base", ptr }
%"class.std::_Function_base" = type { %"union.std::_Any_data", ptr }
%"union.std::_Any_data" = type { %"union.std::_Nocopy_types" }
%"union.std::_Nocopy_types" = type { { i64, i64 } }
%"class.std::function.2" = type { %"class.std::_Function_base", ptr }
%"class.llvm::GlobalValue" = type { %"class.llvm::Constant", ptr, i32, i32, ptr }
%"class.llvm::Constant" = type { %"class.llvm::User" }
%"class.llvm::User" = type { %"class.llvm::Value" }
%"class.llvm::Value" = type { i8, i8, i16, i32, ptr, ptr }
%"class.llvm::ilist_node_impl.13" = type { %"class.llvm::ilist_node_base" }
%"class.llvm::BasicBlock" = type { %"class.llvm::Value", %"class.llvm::ilist_node_with_parent", i8, i32, %"class.llvm::SymbolTableList.124", ptr }
%"class.llvm::ilist_node_with_parent" = type { %"class.llvm::ilist_node.123" }
%"class.llvm::ilist_node.123" = type { %"class.llvm::ilist_node_impl.13" }
%"class.llvm::SymbolTableList.124" = type { %"class.llvm::iplist_impl.125" }
%"class.llvm::iplist_impl.125" = type { %"class.llvm::simple_ilist.128" }
%"class.llvm::simple_ilist.128" = type { %"class.llvm::ilist_sentinel.131" }
%"class.llvm::ilist_sentinel.131" = type { %"class.llvm::ilist_node_impl.132" }
%"class.llvm::ilist_node_impl.132" = type { %"class.llvm::ilist_node_base.133" }
%"class.llvm::ilist_node_base.133" = type { %"class.llvm::ilist_detail::node_base_prevnext.134", %"class.llvm::ilist_detail::node_base_parent.135" }
%"class.llvm::ilist_detail::node_base_prevnext.134" = type { ptr, ptr }
%"class.llvm::ilist_detail::node_base_parent.135" = type { ptr }
%"class.llvm::DebugLoc" = type { %"class.llvm::TypedTrackingMDRef" }
%"class.llvm::TypedTrackingMDRef" = type { %"class.llvm::TrackingMDRef" }
%"class.llvm::TrackingMDRef" = type { ptr }
%"class.llvm::ilist_node.217" = type { %"class.llvm::ilist_node_impl.218" }
%"class.llvm::DbgRecord" = type <{ %"class.llvm::ilist_node.217", ptr, %"class.llvm::DebugLoc", i8, [7 x i8] }>

@_ZN4llvm17ModuleSlotTrackerC1EPKNS_6ModuleEb = unnamed_addr alias void (ptr, ptr, i1), ptr @_ZN4llvm17ModuleSlotTrackerC2EPKNS_6ModuleEb
@_ZN4llvm17ModuleSlotTrackerD1Ev = unnamed_addr alias void (ptr), ptr @_ZN4llvm17ModuleSlotTrackerD2Ev

; Function Attrs: mustprogress nounwind uwtable
define linkonce_odr hidden noundef ptr @_ZNK4llvm11GlobalValue9getParentEv(ptr noundef nonnull align 8 dereferenceable(48) %0) #0 comdat align 2 {
  %2 = alloca ptr, align 8
  store ptr %0, ptr %2, align 8
  %3 = load ptr, ptr %2, align 8
  %4 = getelementptr inbounds nuw %"class.llvm::GlobalValue", ptr %3, i32 0, i32 4
  %5 = load ptr, ptr %4, align 8
  ret ptr %5
}

; Function Attrs: mustprogress nounwind uwtable
define linkonce_odr hidden noundef ptr @_ZNK4llvm10BasicBlock9getParentEv(ptr noundef nonnull align 8 dereferenceable(80) %0) #0 comdat align 2 {
  %2 = alloca ptr, align 8
  store ptr %0, ptr %2, align 8
  %3 = load ptr, ptr %2, align 8
  %4 = getelementptr inbounds nuw %"class.llvm::BasicBlock", ptr %3, i32 0, i32 5
  %5 = load ptr, ptr %4, align 8
  ret ptr %5
}

; Function Attrs: mustprogress nounwind uwtable
define internal noundef ptr @_ZL16getModuleFromDPIPKN4llvm9DbgMarkerE(ptr noundef %0) #0 {
  %2 = alloca ptr, align 8
  %3 = alloca ptr, align 8
  store ptr %0, ptr %2, align 8
  %4 = load ptr, ptr %2, align 8
  %5 = call noundef ptr @_ZNK4llvm9DbgMarker9getParentEv(ptr noundef nonnull align 8 dereferenceable(24) %4)
  %6 = icmp ne ptr %5, null
  br i1 %6, label %7, label %11

7:                                                ; preds = %1
  %8 = load ptr, ptr %2, align 8
  %9 = call noundef ptr @_ZNK4llvm9DbgMarker9getParentEv(ptr noundef nonnull align 8 dereferenceable(24) %8)
  %10 = call noundef ptr @_ZNK4llvm10BasicBlock9getParentEv(ptr noundef nonnull align 8 dereferenceable(80) %9)
  br label %12

11:                                               ; preds = %1
  br label %12

12:                                               ; preds = %11, %7
  %13 = phi ptr [ %10, %7 ], [ null, %11 ]
  store ptr %13, ptr %3, align 8
  %14 = load ptr, ptr %3, align 8
  %15 = icmp ne ptr %14, null
  br i1 %15, label %16, label %19

16:                                               ; preds = %12
  %17 = load ptr, ptr %3, align 8
  %18 = call noundef ptr @_ZNK4llvm11GlobalValue9getParentEv(ptr noundef nonnull align 8 dereferenceable(48) %17)
  br label %20

19:                                               ; preds = %12
  br label %20

20:                                               ; preds = %19, %16
  %21 = phi ptr [ %18, %16 ], [ null, %19 ]
  ret ptr %21
}

; Function Attrs: mustprogress nounwind uwtable
define linkonce_odr hidden noundef ptr @_ZNK4llvm9DbgRecord9getMarkerEv(ptr noundef nonnull align 8 dereferenceable(33) %0) #0 comdat align 2 {
  %2 = alloca ptr, align 8
  store ptr %0, ptr %2, align 8
  %3 = load ptr, ptr %2, align 8
  %4 = getelementptr inbounds nuw %"class.llvm::DbgRecord", ptr %3, i32 0, i32 1
  %5 = load ptr, ptr %4, align 8
  ret ptr %5
}

; Function Attrs: mustprogress nounwind uwtable
define internal noundef ptr @_ZL16getModuleFromDPIPKN4llvm9DbgRecordE(ptr noundef %0) #0 {
  %2 = alloca ptr, align 8
  store ptr %0, ptr %2, align 8
  %3 = load ptr, ptr %2, align 8
  %4 = call noundef ptr @_ZNK4llvm9DbgRecord9getMarkerEv(ptr noundef nonnull align 8 dereferenceable(33) %3)
  %5 = icmp ne ptr %4, null
  br i1 %5, label %6, label %10

6:                                                ; preds = %1
  %7 = load ptr, ptr %2, align 8
  %8 = call noundef ptr @_ZNK4llvm9DbgRecord9getMarkerEv(ptr noundef nonnull align 8 dereferenceable(33) %7)
  %9 = call noundef ptr @_ZL16getModuleFromDPIPKN4llvm9DbgMarkerE(ptr noundef %8)
  br label %11

10:                                               ; preds = %1
  br label %11

11:                                               ; preds = %10, %6
  %12 = phi ptr [ %9, %6 ], [ null, %10 ]
  ret ptr %12
}

; Function Attrs: mustprogress nounwind uwtable
define dso_local void @_ZNK4llvm14DbgLabelRecord5printERNS_11raw_ostreamEb(ptr noundef nonnull align 8 dereferenceable(48) %0, ptr noundef nonnull align 8 dereferenceable(48) %1, i1 noundef zeroext %2) #0 align 2 {
  %4 = alloca ptr, align 8
  %5 = alloca ptr, align 8
  %6 = alloca i8, align 1
  %7 = alloca %"class.llvm::ModuleSlotTracker", align 8
  store ptr %0, ptr %4, align 8
  store ptr %1, ptr %5, align 8
  %8 = zext i1 %2 to i8
  store i8 %8, ptr %6, align 1
  %9 = load ptr, ptr %4, align 8
  %10 = call noundef ptr @_ZL16getModuleFromDPIPKN4llvm9DbgRecordE(ptr noundef %9)
  call void @_ZN4llvm17ModuleSlotTrackerC1EPKNS_6ModuleEb(ptr noundef nonnull align 8 dereferenceable(112) %7, ptr noundef %10, i1 noundef zeroext true)
  %11 = load ptr, ptr %5, align 8
  %12 = load i8, ptr %6, align 1
  %13 = trunc i8 %12 to i1
  call void @_ZNK4llvm14DbgLabelRecord5printERNS_11raw_ostreamERNS_17ModuleSlotTrackerEb(ptr noundef nonnull align 8 dereferenceable(48) %9, ptr noundef nonnull align 8 dereferenceable(48) %11, ptr noundef nonnull align 8 dereferenceable(112) %7, i1 noundef zeroext %13)
  call void @_ZN4llvm17ModuleSlotTrackerD1Ev(ptr noundef nonnull align 8 dereferenceable(112) %7) #11
  ret void
}