; Function Attrs: mustprogress nounwind uwtable
define dso_local void @_ZNK4llvm14DbgLabelRecord5printERNS_11raw_ostreamEb(ptr nocapture noundef nonnull readonly align 8 dereferenceable(48) %0, ptr noundef nonnull align 8 dereferenceable(48) %1, i1 noundef zeroext %2) local_unnamed_addr #1 align 2 {
  %4 = alloca %"class.llvm::ModuleSlotTracker", align 8
  %5 = getelementptr inbounds i8, ptr %0, i64 16
  %.val = load ptr, ptr %5, align 8
  %.not.i = icmp eq ptr %.val, null
  br i1 %.not.i, label %_ZL16getModuleFromDPIPKN4llvm9DbgRecordE.exit, label %6

6:                                                ; preds = %3
  %7 = tail call noundef ptr @_ZNK4llvm9DbgMarker9getParentEv(ptr noundef nonnull align 8 dereferenceable(24) %.val) #25
  %.not.i.i = icmp eq ptr %7, null
  br i1 %.not.i.i, label %_ZL16getModuleFromDPIPKN4llvm9DbgRecordE.exit, label %8

8:                                                ; preds = %6
  %9 = tail call noundef ptr @_ZNK4llvm9DbgMarker9getParentEv(ptr noundef nonnull align 8 dereferenceable(24) %.val) #25
  %10 = getelementptr inbounds nuw i8, ptr %9, i64 72
  %11 = load ptr, ptr %10, align 8
  %.not4.i.i = icmp eq ptr %11, null
  br i1 %.not4.i.i, label %_ZL16getModuleFromDPIPKN4llvm9DbgRecordE.exit, label %12

12:                                               ; preds = %8
  %13 = getelementptr inbounds nuw i8, ptr %11, i64 40
  %14 = load ptr, ptr %13, align 8
  br label %_ZL16getModuleFromDPIPKN4llvm9DbgRecordE.exit

_ZL16getModuleFromDPIPKN4llvm9DbgRecordE.exit:    ; preds = %3, %6, %8, %12
  %15 = phi ptr [ null, %3 ], [ %14, %12 ], [ null, %8 ], [ null, %6 ]
  call void @_ZN4llvm17ModuleSlotTrackerC1EPKNS_6ModuleEb(ptr noundef nonnull align 8 dereferenceable(112) %4, ptr noundef %15, i1 noundef zeroext true) #25
  call void @_ZNK4llvm14DbgLabelRecord5printERNS_11raw_ostreamERNS_17ModuleSlotTrackerEb(ptr noundef nonnull align 8 dereferenceable(48) %0, ptr noundef nonnull align 8 dereferenceable(48) %1, ptr noundef nonnull align 8 dereferenceable(112) %4, i1 noundef zeroext %2)
  call void @_ZN4llvm17ModuleSlotTrackerD1Ev(ptr noundef nonnull align 8 dereferenceable(112) %4) #25
  ret void
}